target datalayout = "e-m:e-p270:32:32-p271:32:32-p272:64:64-i64:64-i128:128-f80:128-n8:16:32:64-S128"
target triple = "x86_64-pc-linux-gnu"

%struct.sigcheck_gpg_trust_level = type { ptr, ptr, i32 }

@.str.1 = private unnamed_addr constant [16 x i8] c"gpg-interface.c\00", align 1
@.str.2 = private unnamed_addr constant [33 x i8] c"invalid trust level requested %d\00", align 1
@.str.3 = private unnamed_addr constant [36 x i8] c"sigcheck_gpg_trust_level[] unsorted\00", align 1

; Function Attrs: nounwind uwtable
define dso_local ptr @gpg_trust_level_to_str(i32 noundef %0) #0 {
  %2 = alloca i32, align 4
  %3 = alloca ptr, align 8
  store i32 %0, ptr %2, align 4, !tbaa !29
  call void @llvm.lifetime.start.p0(i64 8, ptr %3) #8
  %4 = load i32, ptr %2, align 4, !tbaa !29
  %5 = icmp ult i32 %4, 0
  br i1 %5, label %10, label %6

6:                                                ; preds = %1
  %7 = load i32, ptr %2, align 4, !tbaa !29
  %8 = zext i32 %7 to i64
  %9 = icmp uge i64 %8, 5
  br i1 %9, label %10, label %12

10:                                               ; preds = %6, %1
  %11 = load i32, ptr %2, align 4, !tbaa !29
  call void (ptr, i32, ptr, ...) @BUG_fl(ptr noundef @.str.1, i32 noundef 939, ptr noundef @.str.2, i32 noundef %11) #9
  unreachable

12:                                               ; preds = %6
  %13 = load i32, ptr %2, align 4, !tbaa !29
  %14 = zext i32 %13 to i64
  %15 = getelementptr inbounds nuw [5 x %struct.sigcheck_gpg_trust_level], ptr @sigcheck_gpg_trust_level, i64 0, i64 %14
  store ptr %15, ptr %3, align 8, !tbaa !48
  %16 = load ptr, ptr %3, align 8, !tbaa !48
  %17 = getelementptr inbounds nuw %struct.sigcheck_gpg_trust_level, ptr %16, i32 0, i32 2
  %18 = load i32, ptr %17, align 8, !tbaa !50
  %19 = load i32, ptr %2, align 4, !tbaa !29
  %20 = icmp ne i32 %18, %19
  br i1 %20, label %21, label %22

21:                                               ; preds = %12
  call void (ptr, i32, ptr, ...) @BUG_fl(ptr noundef @.str.1, i32 noundef 943, ptr noundef @.str.3) #9
  unreachable

22:                                               ; preds = %12
  %23 = load i32, ptr %2, align 4, !tbaa !29
  %24 = zext i32 %23 to i64
  %25 = getelementptr inbounds nuw [5 x %struct.sigcheck_gpg_trust_level], ptr @sigcheck_gpg_trust_level, i64 0, i64 %24
  %26 = getelementptr inbounds nuw %struct.sigcheck_gpg_trust_level, ptr %25, i32 0, i32 1
  %27 = load ptr, ptr %26, align 8, !tbaa !52
  call void @llvm.lifetime.end.p0(i64 8, ptr %3) #8
  ret ptr %27
}