; Function Attrs: nounwind uwtable
define dso_local ptr @gpg_trust_level_to_str(i32 noundef %0) local_unnamed_addr #2 {
  %2 = icmp ugt i32 %0, 4
  br i1 %2, label %3, label %4

3:                                                ; preds = %1
  tail call void (ptr, i32, ptr, ...) @BUG_fl(ptr noundef nonnull @.str.1, i32 noundef 939, ptr noundef nonnull @.str.2, i32 noundef %0) #16
  unreachable

4:                                                ; preds = %1
  %5 = zext nneg i32 %0 to i64
  %6 = getelementptr inbounds nuw [5 x %struct.sigcheck_gpg_trust_level], ptr @sigcheck_gpg_trust_level, i64 0, i64 %5
  %7 = getelementptr inbounds nuw i8, ptr %6, i64 16
  %8 = load i32, ptr %7, align 8, !tbaa !42
  %.not = icmp eq i32 %8, %0
  br i1 %.not, label %10, label %9

9:                                                ; preds = %4
  tail call void (ptr, i32, ptr, ...) @BUG_fl(ptr noundef nonnull @.str.1, i32 noundef 943, ptr noundef nonnull @.str.3) #16
  unreachable

10:                                               ; preds = %4
  %11 = getelementptr inbounds nuw i8, ptr %6, i64 8
  %12 = load ptr, ptr %11, align 8, !tbaa !44
  ret ptr %12
}